(dp0
S'Vampire'
p1
(lp2
g1
aS'vampire'
p3
aS''
p4
aI1
aI1
aI0
aI0
aI1
aS'random'
p5
ag5
a(lp6
I10
aI15
aaI8
asS'Terrorist'
p7
(lp8
g7
aS'human'
p9
ag4
aI1
aI2
aI4
aI4
aI2
ag5
ag5
a(lp10
I1
aI15
aaI7
asS'Task Force'
p11
(lp12
S'Task force'
p13
ag9
ag4
aI5
aI5
aI5
aI5
aI3
ag5
ag5
a(lp14
I10
aI50
aaI10
asS'Private Security'
p15
(lp16
S'Private Security'
p17
ag9
ag4
aI1
aI2
aI0
aI0
aI0
ag5
aS'teli'
p18
a(lp19
I1
aI10
aaI6
asS'Angel'
p20
(lp21
g20
aS'angel'
p22
ag4
aI1
aI0
aI1
aI0
aI1
ag5
ag5
a(lp23
I10
aI15
aaI8
asS'Soldier'
p24
(lp25
g24
ag9
ag4
aI3
aI3
aI3
aI3
aI2
ag5
aS'knife'
p26
a(lp27
I10
aI20
aaI8
asS'Fascist'
p28
(lp29
g28
ag9
ag4
aI4
aI5
aI3
aI1
aI3
ag5
aS'whip'
p30
a(lp31
I10
aI20
aaI11
asS'Werewolf'
p32
(lp33
g32
aS'werewolf'
p34
ag4
aI0
aI0
aI1
aI1
aI1
ag5
aS'krallen'
p35
a(lp36
I10
aI15
aaI8
asS'High Angel'
p37
(lp38
g20
ag22
ag4
aI2
aI1
aI3
aI1
aI2
ag5
ag5
a(lp39
I15
aI25
aaI12
asS'Police Officer'
p40
(lp41
S'Police Officer'
p42
ag9
ag4
aI0
aI0
aI0
aI0
aI0
aS'glock'
p43
ag18
a(lp44
I5
aI10
aaI5
asS'Boss'
p45
(lp46
g45
ag9
aI7
aI6
aI6
aI7
aI0
ag5
ag5
a(lp47
I40
aI70
aaI9
asS'Mercenary'
p48
(lp49
g48
ag9
ag4
aI2
aI3
aI2
aI2
aI1
aS'ak74'
p50
ag26
a(lp51
I5
aI20
aaI7
asS'Furious Werewolf'
p52
(lp53
g32
ag34
ag4
aI1
aI3
aI1
aI2
aI1
ag5
aS'silverkrallen'
p54
a(lp55
I15
aI25
aaI12
asS'Besorgt'
p56
(lp57
g56
ag9
ag4
aI0
aI0
aI0
aI0
aI0
ag5
aS'silversword'
p58
a(lp59
I1
aI10
aaI7
asS'Citizen'
p60
(lp61
g60
ag9
ag4
aI0
aI0
aI0
aI0
aI0
aS'None'
p62
ag62
a(lp63
I5
aI15
aaI0
asS'Dark Vampire'
p64
(lp65
g1
ag3
ag4
aI2
aI3
aI1
aI1
aI2
ag5
ag5
a(lp66
I15
aI25
aaI12
asS'Criminal'
p67
(lp68
S'Criminial'
p69
ag9
ag4
aI1
aI1
aI2
aI3
aI2
ag5
ag5
a(lp70
I1
aI15
aaI6
as.