ccopy_reg
_reconstructor
p0
(cgame
Mission
p1
c__builtin__
object
p2
Ntp3
Rp4
(dp5
S'room'
p6
g0
(cgame
Room
p7
g2
Ntp8
Rp9
(dp10
S'id'
p11
I140032356971344
sS'fields'
p12
(lp13
(lp14
S'O'
p15
ag15
ag15
ag15
ag15
ag15
ag15
ag15
ag15
ag15
ag15
ag15
ag15
ag15
ag15
ag15
ag15
ag15
ag15
ag15
ag15
ag15
ag15
ag15
ag15
ag15
ag15
ag15
ag15
ag15
ag15
ag15
ag15
ag15
ag15
ag15
ag15
ag15
ag15
ag15
aS'W'
p16
ag15
ag15
ag15
ag15
ag16
ag15
ag15
ag15
ag15
ag15
ag15
aa(lp17
g15
ag15
ag15
ag15
ag15
ag15
ag15
ag15
ag15
ag15
ag15
ag15
ag15
ag15
ag15
ag15
ag15
ag15
ag15
ag15
ag15
ag15
ag15
ag15
ag15
ag15
ag15
ag15
ag15
ag15
ag15
ag15
ag15
ag15
ag15
ag15
ag15
ag15
ag15
ag15
ag16
ag15
aI1
aI1
ag15
ag16
ag15
ag15
ag15
ag15
ag15
ag15
aa(lp18
g15
ag15
ag15
ag15
ag15
ag15
ag15
ag15
ag15
ag15
ag15
ag15
ag15
ag15
ag15
ag15
ag15
ag15
ag15
ag15
ag15
ag15
ag15
ag15
ag15
ag15
ag15
ag15
ag15
ag15
ag15
ag15
ag15
ag15
ag15
ag15
ag15
ag15
ag15
ag15
ag16
aS'B'
p19
ag19
ag19
ag19
ag16
ag15
ag15
ag15
aI0
ag15
ag15
aa(lp20
g15
ag15
ag15
ag15
ag15
ag15
ag15
ag15
ag15
ag15
ag15
ag15
ag15
ag15
ag15
ag15
ag15
ag15
ag15
ag15
ag15
ag15
ag15
aI1
aI1
ag15
ag15
ag15
aI1
ag15
ag15
ag15
ag15
ag15
ag15
ag15
ag15
ag15
ag15
ag15
ag16
ag15
ag15
ag15
ag15
ag16
ag15
ag15
ag15
ag15
ag15
ag15
aa(lp21
g15
ag15
ag15
ag15
ag15
ag15
ag15
ag15
ag15
ag15
ag15
ag15
ag15
ag15
ag15
ag15
ag15
ag15
ag15
ag15
aI1
ag15
ag15
ag15
ag15
ag15
ag15
ag15
aI1
ag15
ag15
ag15
ag15
ag15
ag15
ag15
ag15
ag15
ag15
ag15
ag16
ag15
ag15
ag15
ag15
ag16
ag15
ag15
ag15
ag15
ag15
ag15
aa(lp22
g15
ag15
ag15
ag15
ag15
ag15
ag15
ag15
ag15
ag15
ag15
ag15
ag15
ag15
ag15
ag15
ag15
ag15
ag15
ag15
ag15
ag15
ag15
ag15
ag15
ag15
ag15
ag15
ag15
ag15
ag15
ag15
ag15
ag15
ag15
ag15
ag15
ag15
ag15
ag15
ag16
ag15
ag15
ag15
ag15
ag16
ag16
ag15
ag15
ag16
ag16
ag16
aa(lp23
g15
ag15
ag15
ag15
ag15
ag15
ag15
ag15
ag15
ag15
ag15
ag15
ag15
ag15
ag15
ag15
ag15
ag15
ag15
ag15
ag15
aI1
ag15
ag15
ag15
aI1
ag15
ag15
aI1
ag15
ag15
ag15
ag15
ag15
ag15
ag15
ag15
ag15
ag15
ag15
ag16
ag15
ag15
ag15
ag15
ag15
ag15
ag15
ag15
ag16
ag15
ag15
aa(lp24
g15
ag15
ag15
ag15
ag15
ag15
ag15
ag15
ag15
ag15
ag15
ag15
ag15
ag15
ag15
ag15
ag15
ag15
ag15
ag15
ag15
ag15
ag15
ag15
ag15
ag15
ag15
ag15
ag15
ag15
ag15
ag15
ag15
ag15
ag15
ag15
ag15
ag15
ag15
ag15
ag16
ag15
ag15
ag15
ag15
ag15
ag15
ag15
ag15
ag16
ag15
ag15
aa(lp25
g15
ag15
ag15
ag15
ag15
ag15
ag15
ag15
ag15
ag15
ag15
ag15
ag15
ag15
ag15
ag15
ag15
ag15
ag15
ag15
ag15
ag15
ag15
ag15
ag15
ag15
ag15
ag15
ag15
ag15
ag15
ag15
ag15
ag15
ag15
ag15
ag15
ag15
ag15
ag15
ag16
ag15
ag15
ag15
ag15
ag15
ag15
ag15
ag15
ag16
ag15
ag15
aa(lp26
g15
ag15
ag15
ag15
ag15
ag15
ag15
ag15
ag15
ag15
ag15
ag15
ag15
ag15
ag15
ag15
ag15
ag15
ag15
ag15
ag15
ag15
ag15
ag15
ag15
ag15
ag15
ag15
ag15
ag15
ag15
ag15
ag15
ag15
ag15
ag15
ag15
ag15
ag15
ag15
ag16
ag15
ag15
ag15
ag15
ag16
ag16
ag16
ag16
ag16
ag15
ag15
aa(lp27
g15
ag15
ag15
ag15
ag15
ag15
ag15
ag15
ag15
ag15
ag15
ag15
ag15
ag15
ag15
ag15
ag15
ag15
ag15
ag15
ag15
ag15
ag15
ag15
ag15
ag15
ag15
ag15
ag15
ag15
ag15
ag15
ag15
ag15
ag15
ag15
ag15
ag15
ag15
ag15
ag16
ag15
ag15
ag15
ag15
ag16
ag15
ag15
ag15
ag15
ag15
ag15
aa(lp28
g15
ag15
ag15
ag15
ag15
ag15
ag15
ag15
ag15
ag15
ag15
ag15
ag15
ag15
ag15
ag15
ag15
ag15
ag15
ag15
ag15
ag19
ag19
ag15
ag15
ag15
ag15
ag15
ag15
ag15
ag15
ag15
ag15
ag15
ag15
ag15
ag15
ag15
ag15
ag15
ag16
ag15
ag15
ag15
ag15
ag16
ag15
ag15
ag15
ag15
ag15
ag15
aa(lp29
g15
ag15
ag15
ag15
ag15
ag15
ag15
ag15
ag15
ag15
ag15
ag15
ag15
ag15
ag15
ag15
ag15
ag15
ag15
ag15
ag15
ag15
ag15
ag19
ag15
ag15
ag15
ag15
ag15
ag15
ag15
ag15
ag15
ag15
ag15
ag15
ag15
ag15
ag15
ag15
ag16
ag15
ag15
ag15
ag15
ag16
ag15
ag15
ag15
ag15
ag15
ag15
aa(lp30
g15
ag15
ag15
ag15
ag15
ag15
ag15
ag15
ag15
ag15
ag15
ag15
ag15
ag15
ag15
ag15
ag15
ag15
ag15
ag15
ag15
ag15
ag15
ag19
ag15
ag15
ag15
ag15
ag15
ag15
ag15
ag15
ag15
ag15
ag15
ag15
ag15
ag15
ag15
ag15
ag16
ag15
ag15
ag15
ag15
ag16
ag15
ag15
ag15
ag15
ag15
ag15
aa(lp31
g15
ag15
ag15
ag15
ag15
ag15
ag15
ag15
ag15
ag15
ag15
ag15
ag15
ag15
ag15
ag15
ag15
ag19
ag15
ag15
ag15
ag15
ag15
ag15
ag15
ag15
ag15
ag15
ag15
ag15
ag15
ag15
ag15
ag15
ag15
ag15
ag15
ag15
ag15
ag15
ag16
ag15
ag15
ag15
ag15
ag16
ag15
ag15
ag15
ag15
ag15
ag15
aa(lp32
g15
ag15
ag15
ag15
ag15
ag15
ag15
ag15
ag15
ag15
ag15
ag15
ag15
ag15
ag15
ag15
ag15
ag19
ag19
ag15
ag15
ag15
ag15
ag15
ag15
ag15
ag15
ag15
ag15
ag15
ag15
ag15
ag15
ag15
ag15
ag15
ag15
ag15
ag15
ag15
ag16
ag15
ag15
ag15
ag15
ag16
ag15
ag15
aI1
ag15
ag15
ag15
aa(lp33
g16
ag16
ag16
ag15
ag15
ag15
ag15
ag15
ag15
ag15
ag15
ag15
ag19
ag15
ag15
ag15
ag15
ag19
ag15
ag15
ag15
ag15
ag15
ag15
ag15
ag15
ag15
ag15
ag15
ag19
ag19
ag15
ag15
ag15
ag15
ag15
ag15
ag15
ag15
ag15
ag16
ag15
ag15
ag15
ag15
ag16
ag15
ag15
ag15
aI1
ag15
aI1
aa(lp34
g15
ag15
ag15
ag15
ag15
ag15
ag15
ag15
ag15
ag15
ag15
ag15
ag19
ag15
ag15
ag15
ag15
ag15
ag15
ag15
ag15
ag19
ag15
ag15
ag15
ag15
ag15
ag15
ag15
ag19
ag15
ag15
ag15
ag15
ag15
ag15
ag15
ag16
ag16
ag16
ag16
ag15
ag15
ag15
ag15
ag16
ag15
aI1
ag15
ag15
aI1
ag15
aa(lp35
g16
ag16
ag16
ag15
ag15
ag15
ag15
ag15
ag15
ag15
ag15
ag15
ag19
ag15
ag15
ag15
ag15
ag15
ag15
ag15
ag15
ag19
ag15
ag15
ag15
ag15
ag15
ag15
ag15
ag19
ag15
ag15
ag15
ag15
ag15
ag15
ag15
ag15
ag15
ag15
ag15
ag15
ag15
ag15
ag15
ag16
ag15
ag15
ag15
aI1
ag15
ag15
aa(lp36
g15
ag15
ag15
ag15
ag15
ag15
ag15
ag15
ag15
ag15
ag15
ag15
ag19
ag15
ag15
ag15
ag15
ag19
ag15
ag15
ag15
ag19
ag15
ag15
ag15
ag15
ag15
ag15
ag15
ag15
ag15
ag15
ag15
ag15
ag15
ag15
ag15
ag15
ag15
ag15
ag15
ag15
ag15
ag15
ag15
ag15
ag15
aI1
aI1
ag15
ag15
aI1
aa(lp37
g15
ag15
ag15
ag15
ag15
ag15
ag15
ag15
ag15
ag19
ag15
ag15
ag15
ag15
ag15
ag15
ag15
ag19
ag15
ag15
ag19
ag15
ag15
ag15
ag19
ag19
ag15
ag15
ag15
ag15
ag15
ag15
ag15
ag15
ag15
ag15
ag15
ag15
ag15
ag15
ag15
ag15
ag15
ag15
ag15
ag15
ag15
aI1
ag15
aI1
ag15
ag15
aa(lp38
g15
ag15
ag15
ag15
ag15
ag15
ag15
ag15
ag15
ag19
ag19
ag19
ag19
ag15
ag15
ag15
ag15
ag19
ag15
ag15
ag15
ag15
ag15
ag15
ag19
ag19
ag15
ag15
ag15
ag15
ag15
ag15
ag15
ag15
ag15
ag15
ag15
ag16
ag16
ag16
ag16
ag16
ag16
ag16
ag16
ag16
ag16
ag16
ag16
ag16
ag16
ag16
aa(lp39
g15
ag15
ag15
ag15
ag15
ag15
ag15
ag15
ag15
ag15
ag15
ag15
ag15
ag15
ag15
ag15
ag19
ag19
ag15
ag15
ag15
ag15
ag15
ag15
ag15
ag19
ag15
ag15
ag15
ag15
ag15
ag15
ag15
ag15
ag15
ag15
ag15
ag15
ag15
ag15
ag15
ag15
ag15
ag15
ag15
ag15
ag15
ag15
ag15
ag15
ag15
ag15
aa(lp40
g15
ag15
ag15
ag15
ag15
ag15
ag15
ag15
ag15
ag15
ag15
ag15
ag15
ag15
ag15
ag15
ag15
ag15
ag15
ag15
ag15
ag15
ag15
ag15
ag15
ag15
ag15
ag15
ag15
ag15
ag15
ag15
ag15
ag15
ag15
ag15
ag15
ag15
ag15
ag15
ag15
ag15
ag15
ag15
ag15
ag15
ag15
ag15
ag15
ag15
ag15
ag15
aa(lp41
g15
ag15
ag15
ag15
ag15
ag15
ag15
ag15
ag15
ag15
ag15
ag15
ag15
ag15
ag15
ag15
ag15
ag15
ag15
ag15
ag15
ag15
ag15
ag15
ag15
ag15
ag15
ag15
ag15
ag15
ag15
ag15
ag15
ag15
ag15
ag15
ag15
ag15
ag15
ag15
ag15
ag15
ag15
ag15
ag15
ag15
ag15
ag15
ag15
ag15
ag15
ag15
aa(lp42
g15
ag15
ag15
ag15
ag15
ag15
ag15
ag15
ag15
ag15
ag15
ag15
ag15
ag15
ag15
ag15
ag15
ag15
ag15
ag15
ag15
ag15
ag15
ag15
ag15
ag15
ag15
ag15
ag15
ag15
ag15
ag15
ag15
ag15
ag15
ag15
ag15
ag15
ag15
ag15
ag15
ag15
ag15
ag15
ag15
ag15
ag15
ag15
ag15
ag15
ag15
ag15
aa(lp43
g15
ag15
ag15
ag15
ag15
ag15
ag15
ag15
ag15
ag15
ag15
ag15
ag15
ag15
ag15
ag15
ag15
ag15
ag15
ag15
ag15
ag15
ag15
ag15
ag15
ag15
ag15
ag15
ag15
ag15
ag15
ag15
ag15
ag15
ag15
ag15
ag15
ag15
ag15
ag15
ag15
ag15
ag15
ag15
ag15
ag15
ag15
ag15
ag15
ag15
ag15
ag15
aa(lp44
g15
ag15
ag15
ag15
ag15
ag15
ag15
ag15
ag15
ag15
ag15
ag15
ag15
ag15
ag15
ag15
ag15
ag15
ag15
ag15
ag15
ag15
ag15
ag15
ag15
ag15
ag15
ag15
ag15
ag15
ag15
ag15
ag15
ag15
ag15
ag15
ag15
ag15
ag15
ag15
ag15
ag15
ag15
ag15
ag15
ag15
ag15
ag15
ag15
ag15
ag15
ag15
aa(lp45
g15
ag15
ag15
ag15
ag15
ag15
ag15
ag15
ag15
ag15
ag15
ag15
ag15
ag15
ag15
ag15
ag15
ag15
ag15
ag15
ag15
ag15
ag15
ag15
ag15
ag15
ag15
ag15
ag15
ag15
ag15
ag15
ag15
ag15
ag15
ag15
ag15
ag15
ag15
ag15
ag15
ag15
ag15
ag15
ag15
ag15
ag15
ag15
ag15
ag15
ag15
ag15
aa(lp46
g15
ag15
ag15
ag15
ag15
ag15
ag15
ag15
ag15
ag15
ag15
ag15
ag15
ag15
ag15
ag15
ag15
ag15
ag15
ag15
ag15
ag15
ag15
ag15
ag15
ag15
ag15
ag15
ag15
ag15
ag15
ag15
ag15
ag15
ag15
ag15
ag15
ag15
ag15
ag15
ag15
ag15
ag15
ag15
ag15
ag15
ag15
ag15
ag15
ag15
ag15
ag15
aasS'fielddata'
p47
(dp48
I1
S'Soldier'
p49
sS'target'
p50
I1
ssS'description'
p51
S'Run as fast as you can!'
p52
sbsS'target_enemy'
p53
I21
sS'target_item'
p54
NsS'rooms'
p55
(lp56
g9
asS'rewardmoney'
p57
I30
sS'rewardxp'
p58
I70
sS'rewarditems'
p59
(lp60
sS'current_room'
p61
g9
sS'target_coordinates'
p62
Nsg51
S'Escape the Soldiers hunting you.'
p63
sb.