ccopy_reg
_reconstructor
p0
(cgame
Mission
p1
c__builtin__
object
p2
Ntp3
Rp4
(dp5
S'room'
p6
g0
(cgame
Room
p7
g2
Ntp8
Rp9
(dp10
S'id'
p11
I139966714062800
sS'fields'
p12
(lp13
(lp14
S'O'
p15
ag15
ag15
ag15
ag15
ag15
ag15
ag15
ag15
ag15
ag15
ag15
ag15
ag15
aS'W'
p16
ag15
ag15
ag15
ag15
ag15
ag15
ag15
ag15
ag15
ag15
ag16
ag15
ag15
aS'B'
p17
ag15
ag15
ag17
ag15
ag15
ag15
ag16
ag15
ag15
ag15
ag15
ag15
ag15
ag15
ag15
ag15
ag15
ag15
ag15
ag15
ag16
ag16
ag16
aa(lp18
g15
ag15
ag15
ag15
ag15
ag15
ag15
ag15
ag15
ag15
ag15
ag15
ag15
ag15
ag16
ag17
ag17
ag17
ag17
ag17
ag17
ag17
ag15
ag15
ag15
ag16
ag15
ag15
ag15
ag15
ag15
ag17
ag15
ag15
ag15
ag16
ag15
ag15
ag15
ag15
ag15
ag15
ag15
ag15
ag15
ag15
ag15
ag15
ag15
ag16
ag16
ag16
aa(lp19
g15
ag15
ag15
ag15
ag15
ag15
ag15
ag15
ag15
ag15
ag15
ag15
ag15
ag15
ag16
ag15
ag15
ag15
ag15
ag15
ag15
ag17
ag15
ag15
ag15
ag16
ag15
aI1
ag17
ag15
ag15
ag17
ag15
ag15
ag15
ag16
ag15
ag15
ag17
ag15
ag15
ag15
ag15
ag15
ag15
ag15
ag15
ag15
ag15
ag16
ag16
ag16
aa(lp20
g15
ag15
ag15
ag15
ag15
ag15
ag15
ag15
ag15
ag15
ag15
ag15
ag15
ag15
ag16
ag15
ag15
ag15
ag15
ag15
ag15
ag17
ag15
ag15
ag15
ag16
ag17
ag17
ag17
ag15
ag15
ag17
ag15
ag15
ag15
ag16
ag15
ag15
ag17
ag15
ag15
ag15
ag15
ag15
ag15
ag15
ag15
ag15
ag15
ag16
ag16
ag16
aa(lp21
g15
ag15
ag15
ag15
ag15
ag15
ag15
ag15
ag15
ag15
ag15
ag15
ag15
ag15
ag16
ag15
ag15
ag15
ag15
ag15
ag15
ag17
ag15
ag15
ag15
ag16
ag15
ag15
ag15
ag15
ag15
ag17
aI1
aI1
ag15
ag16
aI1
aI1
ag17
ag15
ag15
ag15
ag15
ag15
ag15
ag15
ag15
ag15
ag15
ag15
ag15
ag15
aa(lp22
g15
ag15
ag15
ag15
ag15
ag15
ag15
ag15
ag15
ag15
ag15
ag15
ag15
ag15
ag16
ag15
aI1
ag15
aI1
aI1
ag15
ag17
ag15
ag15
ag15
ag16
ag15
ag15
ag15
ag15
ag15
ag17
ag17
ag17
ag15
ag16
ag17
ag17
ag17
ag15
ag15
ag15
ag15
ag15
ag15
ag15
ag15
ag15
ag17
ag17
ag15
ag17
aa(lp23
g15
ag15
ag15
ag15
ag15
ag15
ag15
ag15
ag15
ag15
ag15
ag15
ag15
ag15
ag16
ag17
ag17
ag17
ag17
ag17
ag17
ag17
ag15
ag15
ag15
ag16
ag15
ag15
ag15
ag15
ag15
ag15
ag15
ag15
ag15
ag16
ag15
ag15
ag15
ag15
ag15
ag15
ag15
ag15
ag15
ag15
ag15
ag15
ag17
aI1
ag15
ag15
aa(lp24
g15
ag15
ag15
ag15
ag15
ag15
ag15
ag15
ag15
ag15
ag15
ag15
ag15
ag15
ag16
ag15
ag15
ag15
ag15
ag15
ag15
ag15
ag15
ag15
ag15
ag16
ag15
ag15
ag15
ag15
ag15
ag15
ag15
ag15
ag15
ag16
ag15
ag15
ag15
ag15
ag15
ag15
ag15
ag15
ag15
ag15
ag15
ag15
ag17
aI1
ag15
ag15
aa(lp25
g15
ag15
ag15
ag15
ag15
ag15
ag15
ag15
ag15
ag15
ag15
ag15
ag15
ag15
ag16
ag15
ag17
ag17
ag15
ag15
ag15
ag15
ag15
ag15
ag15
ag16
ag15
ag15
ag15
ag15
ag15
ag15
ag15
ag15
ag15
ag16
ag15
ag15
ag15
ag15
ag15
ag15
ag15
ag15
ag15
ag15
ag15
ag15
ag17
ag15
ag15
ag15
aa(lp26
g15
ag15
ag15
ag15
ag15
ag15
ag15
ag15
ag15
ag15
ag15
ag15
ag15
ag15
ag16
ag15
ag17
ag17
ag15
ag15
ag15
ag15
ag15
ag15
ag15
ag16
ag15
ag15
ag15
ag15
ag15
ag15
ag15
ag15
ag15
ag16
ag15
ag15
ag15
ag15
ag15
ag15
ag15
ag15
ag15
ag15
ag15
ag15
ag17
aI1
ag15
ag15
aa(lp27
g15
ag15
ag15
ag15
ag15
ag15
ag15
ag15
ag15
ag15
ag15
ag15
ag15
ag15
ag16
ag16
ag16
ag16
ag16
ag17
ag15
ag17
ag16
ag16
ag16
ag16
ag16
ag16
ag16
ag17
ag15
ag17
ag16
ag16
ag16
ag16
ag16
ag16
ag17
ag15
ag17
ag16
ag16
ag16
ag16
ag16
ag16
ag16
ag16
ag16
ag16
ag16
aa(lp28
g15
ag15
ag15
ag15
ag15
ag15
ag15
ag15
ag15
ag15
ag15
ag15
ag15
ag15
ag16
ag15
ag15
ag15
ag15
ag15
ag15
ag15
ag15
ag15
ag15
ag15
ag15
ag15
ag15
ag15
ag15
ag15
ag15
ag15
ag15
ag15
ag15
ag15
ag15
ag15
ag15
ag15
ag15
ag17
aI1
ag15
ag15
ag15
ag15
ag15
ag15
ag15
aa(lp29
g15
ag15
ag15
ag15
ag15
ag15
ag15
ag15
ag15
ag15
ag15
ag15
ag15
ag15
ag15
ag16
ag15
ag15
ag15
ag15
ag15
ag15
ag15
ag15
ag15
ag15
ag15
ag15
ag15
ag15
ag15
ag15
ag15
ag15
ag15
ag15
ag15
ag15
ag15
ag15
ag15
ag15
ag15
ag15
ag15
ag15
ag15
ag15
ag15
ag15
ag15
ag15
aa(lp30
g15
ag15
ag15
ag15
ag15
ag15
ag15
ag15
ag15
ag15
ag15
ag15
ag15
ag15
ag15
ag15
ag16
ag15
ag15
ag15
ag15
ag15
ag15
ag15
ag15
ag15
ag15
ag15
ag15
ag15
ag15
ag15
ag15
ag15
ag15
ag15
ag15
ag15
ag15
ag15
ag15
ag15
ag15
ag17
aI1
ag15
ag15
ag15
ag15
ag17
ag17
ag15
aa(lp31
g15
ag15
ag15
ag15
ag15
ag15
ag15
ag15
ag15
ag15
ag15
ag15
ag15
ag15
ag15
ag15
ag15
ag16
ag15
ag15
ag15
ag15
ag15
ag15
ag15
ag15
ag15
ag15
ag15
ag15
ag16
ag16
ag16
ag16
ag16
ag17
ag15
ag17
ag16
ag16
ag16
ag16
ag16
ag16
ag15
ag15
ag15
ag15
ag15
ag17
aI1
ag15
aa(lp32
g15
ag15
ag15
ag15
ag15
ag15
ag15
ag15
ag15
ag15
ag15
ag15
ag15
ag15
ag15
ag15
ag15
ag15
ag16
ag16
ag17
aI0
ag17
ag16
ag16
ag16
ag16
ag15
ag15
ag15
ag16
ag15
ag15
ag15
ag15
ag15
ag15
ag15
ag17
ag17
ag17
ag17
aI1
ag16
ag15
ag15
ag15
ag15
ag15
ag17
ag15
ag15
aa(lp33
g15
ag15
ag15
ag15
ag15
ag15
ag15
ag15
ag15
ag15
ag15
ag15
ag15
ag15
ag15
ag15
ag15
ag15
ag15
ag16
ag16
ag16
ag16
ag16
ag15
ag15
ag16
ag15
ag15
ag15
ag16
ag15
ag15
ag15
ag15
ag15
ag15
ag15
ag15
ag15
ag15
ag15
ag16
ag16
ag15
ag17
ag15
ag15
ag15
ag17
aI1
ag15
aa(lp34
g15
ag15
ag15
ag15
ag15
ag15
ag15
ag15
ag15
ag15
ag15
ag15
ag15
ag15
ag15
ag15
ag15
ag15
ag15
ag15
ag15
ag15
ag15
ag15
ag15
ag15
ag16
ag15
ag15
ag15
ag16
ag17
ag17
ag17
ag17
ag17
ag17
ag17
ag17
ag17
ag15
ag16
ag16
ag16
ag15
ag17
ag15
ag15
ag15
ag17
ag15
ag15
aa(lp35
g15
ag15
ag15
ag15
ag15
ag15
ag15
ag15
ag15
ag15
ag15
ag15
ag15
ag15
ag15
ag15
ag15
ag15
ag15
ag15
ag15
ag15
ag15
ag15
ag15
ag15
ag16
ag15
ag15
ag15
ag16
ag15
ag15
aI1
ag15
aI1
ag15
ag15
ag15
ag15
ag16
ag16
ag16
ag16
ag16
ag16
ag17
ag15
ag17
ag16
ag16
ag16
aa(lp36
g15
ag15
ag15
ag15
ag15
ag15
ag15
ag15
ag15
ag15
ag15
ag15
ag15
ag15
ag15
ag15
ag15
ag15
ag15
ag15
ag15
ag15
ag15
ag15
ag15
ag15
ag16
ag15
ag15
ag15
ag16
ag16
ag16
ag16
ag16
ag16
ag16
ag16
ag16
ag16
ag16
ag16
ag16
ag16
ag15
ag15
aI1
ag15
aI1
ag16
ag15
ag16
aa(lp37
g15
ag15
ag15
ag15
ag15
ag15
ag15
ag15
ag15
ag15
ag15
ag15
ag15
ag15
ag15
ag15
ag15
ag15
ag15
ag15
ag15
ag15
ag15
ag15
ag15
ag15
ag16
ag15
ag15
ag15
ag16
ag15
ag15
ag17
ag17
aI1
ag15
ag15
ag15
ag15
ag15
ag16
ag16
ag16
ag15
ag15
ag15
ag15
ag15
ag17
ag15
ag15
aa(lp38
g15
ag15
ag15
ag15
ag15
ag15
ag15
ag15
ag15
ag15
ag15
ag15
ag15
ag15
ag15
ag15
ag15
ag15
ag15
ag15
ag15
ag15
ag15
ag15
ag15
ag15
ag16
ag15
ag15
ag15
ag15
ag15
ag15
ag15
ag17
ag17
ag17
ag15
ag17
ag17
ag15
ag16
ag16
ag16
ag15
ag15
ag15
ag15
ag15
ag17
ag15
ag15
aa(lp39
g15
ag15
ag15
ag15
ag15
ag15
ag15
ag15
ag15
ag15
ag15
ag15
ag15
ag15
ag15
ag15
ag15
ag15
ag15
ag15
ag15
ag15
ag15
ag15
ag15
ag15
ag16
ag15
ag15
ag15
ag15
ag15
ag15
ag15
ag15
ag15
ag15
ag15
ag15
ag17
aI1
ag16
ag16
ag16
ag15
ag15
ag15
ag15
ag15
ag17
ag15
ag15
aa(lp40
g15
ag15
ag15
ag15
ag15
ag15
ag15
ag15
ag15
ag15
ag15
ag15
ag15
ag15
ag15
ag15
ag15
ag15
ag15
ag15
ag15
ag15
ag15
ag15
ag15
ag15
ag16
ag15
ag15
ag15
ag15
ag15
ag15
ag15
ag15
ag15
ag15
ag15
ag15
ag17
ag15
ag16
ag16
ag16
ag15
ag15
ag15
ag15
ag15
ag17
ag15
ag15
aa(lp41
g15
ag15
ag15
ag15
ag15
ag15
ag15
ag15
ag15
ag15
ag15
ag15
ag15
ag15
ag15
ag15
ag15
ag15
ag15
ag15
ag15
ag15
ag15
ag15
ag15
ag15
ag16
ag15
ag15
ag15
ag16
ag17
ag17
ag15
ag15
ag15
ag15
ag15
ag15
ag15
ag15
ag16
ag16
ag16
ag15
ag15
ag15
ag15
ag15
ag16
ag15
ag16
aa(lp42
g15
ag15
ag15
ag15
ag15
ag15
ag15
ag15
ag15
ag15
ag15
ag15
ag15
ag15
ag15
ag15
ag15
ag15
ag15
ag15
ag15
ag15
ag15
ag15
ag15
ag15
ag16
ag17
ag15
ag17
ag16
aI1
ag17
ag15
ag15
ag15
ag15
ag15
ag15
ag17
ag15
ag16
ag16
ag16
ag17
ag17
ag15
ag15
ag15
ag16
ag16
ag16
aa(lp43
g15
ag15
ag15
ag15
ag15
ag15
ag15
ag15
ag15
ag15
ag15
ag15
ag15
ag15
ag15
ag15
ag15
ag15
ag15
ag15
ag15
ag15
ag15
ag15
ag15
ag15
ag16
ag15
ag15
ag15
ag16
ag15
ag17
ag15
ag15
ag17
ag17
ag17
ag17
ag16
ag16
ag16
ag16
ag16
aI1
ag17
ag15
ag15
ag15
ag16
aS'T'
p44
ag16
aa(lp45
g15
ag15
ag15
ag15
ag15
ag15
ag15
ag15
ag15
ag15
ag15
ag15
ag15
ag15
ag15
ag15
ag15
ag15
ag15
ag15
ag15
ag15
ag15
ag15
ag15
ag15
ag16
ag15
ag17
ag15
ag16
ag15
ag17
ag15
ag15
ag17
aI1
ag15
ag15
ag16
ag16
ag16
ag16
ag16
ag15
ag17
ag15
ag15
ag15
ag16
ag15
ag16
aa(lp46
g15
ag15
ag15
ag15
ag15
ag15
ag15
ag15
ag15
ag15
ag15
ag15
ag15
ag15
ag15
ag15
ag15
ag15
ag15
ag15
ag15
ag15
ag15
ag15
ag15
ag15
ag16
ag17
aI1
ag17
ag16
ag15
ag17
ag15
ag15
ag17
ag15
ag15
ag15
ag16
ag16
ag16
ag16
ag16
aI1
ag17
ag15
ag15
ag15
ag15
ag15
ag16
aa(lp47
g15
ag15
ag15
ag15
ag15
ag15
ag15
ag15
ag15
ag15
ag15
ag15
ag15
ag15
ag15
ag15
ag15
ag15
ag15
ag15
ag15
ag15
ag15
ag15
ag15
ag15
ag16
ag17
ag15
ag17
ag16
ag15
ag15
ag15
ag15
ag15
ag15
ag15
ag15
ag16
ag16
ag16
ag16
ag16
ag15
ag15
ag15
ag15
ag15
ag16
ag16
ag16
aasS'fielddata'
p48
(dp49
I1
S'Police Officer'
p50
ssS'description'
p51
S'Get the drugs from the cupboard!'
p52
sbsS'target_enemy'
p53
I0
sS'target_item'
p54
S'Treasure'
p55
sS'rooms'
p56
(lp57
g9
asS'rewardmoney'
p58
I200
sS'rewardxp'
p59
I23
sS'rewarditems'
p60
(lp61
sS'current_room'
p62
g9
sS'target_coordinates'
p63
Nsg51
S'Break into the commune and steal the drugs.'
p64
sb.