ccopy_reg
_reconstructor
p0
(cgame
Mission
p1
c__builtin__
object
p2
Ntp3
Rp4
(dp5
S'room'
p6
g0
(cgame
Room
p7
g2
Ntp8
Rp9
(dp10
S'id'
p11
I140425027750928
sS'fields'
p12
(lp13
(lp14
S'O'
p15
ag15
ag15
ag15
ag15
ag15
aS'W'
p16
ag15
ag15
ag15
ag15
ag15
aI1
ag15
ag15
ag15
ag15
ag15
aI1
ag16
ag15
ag15
ag16
ag16
ag16
ag16
ag16
ag16
ag16
ag16
ag16
ag16
ag16
ag16
ag16
ag16
ag16
ag16
ag16
ag16
aa(lp17
g15
ag15
ag15
ag15
ag15
ag15
ag16
ag15
ag15
ag15
ag15
ag15
ag15
ag15
ag15
ag15
ag15
ag15
ag15
ag16
ag15
ag15
ag16
ag15
ag15
ag15
ag15
ag15
ag15
ag15
ag15
ag15
ag15
ag15
ag15
ag15
ag15
ag16
ag16
ag16
aa(lp18
g15
ag15
ag15
ag15
ag15
ag15
ag15
ag15
ag15
ag15
ag15
ag15
ag15
ag15
aI1
ag15
ag15
ag15
ag15
ag16
ag15
ag15
ag15
ag15
ag15
ag15
ag15
ag15
ag15
ag15
ag15
ag15
ag15
ag15
ag15
ag15
ag15
ag16
ag16
ag16
aa(lp19
S'B'
p20
ag15
ag15
ag15
ag15
ag15
ag15
ag15
ag15
ag15
ag16
ag16
ag16
ag16
ag16
ag16
ag15
ag15
ag15
ag16
ag15
ag15
ag16
ag15
ag15
ag15
ag15
ag15
ag15
ag15
ag15
ag15
ag15
ag15
ag15
ag15
ag15
ag16
ag16
ag16
aa(lp21
I1
ag20
ag15
ag15
ag15
ag15
ag16
ag15
ag15
ag15
ag16
ag15
ag15
ag15
ag15
ag16
ag15
ag15
ag15
ag16
ag15
ag15
ag16
ag16
ag16
ag16
ag15
ag15
ag15
ag16
ag16
ag16
ag16
ag16
ag15
ag15
ag15
ag16
ag16
ag16
aa(lp22
g15
ag15
ag15
ag15
ag15
ag15
ag16
ag15
ag15
ag15
ag15
aI1
ag15
ag15
ag15
ag16
ag15
ag15
ag15
ag16
ag15
ag15
ag15
ag15
ag15
ag16
ag15
ag15
ag15
ag16
ag16
ag16
ag16
ag16
ag15
ag15
ag15
ag16
ag16
ag16
aa(lp23
g15
ag15
ag15
ag15
ag15
ag15
ag16
ag15
ag15
ag15
ag15
ag15
ag15
ag15
ag15
ag16
ag15
ag15
ag15
ag16
ag15
ag15
ag15
ag15
ag15
ag16
ag15
ag15
ag15
ag16
ag16
ag16
ag16
ag16
ag15
ag15
ag15
ag16
ag16
ag16
aa(lp24
g15
ag15
ag15
ag20
ag20
ag20
ag16
ag15
ag15
ag15
ag16
ag15
ag15
ag15
aI1
ag16
ag15
ag15
ag15
ag16
ag16
ag16
ag16
ag15
ag15
ag16
ag15
ag15
ag15
ag16
ag16
ag16
ag16
ag16
ag15
ag15
ag15
ag16
ag16
ag16
aa(lp25
g15
ag15
ag15
ag15
aI1
aI1
ag16
ag15
ag15
ag15
ag16
ag15
ag15
ag15
ag15
ag16
ag15
ag15
ag15
ag16
ag15
ag15
ag16
ag15
ag15
ag16
ag15
ag15
ag15
ag16
ag16
ag16
ag16
ag16
ag15
ag15
ag15
ag16
ag16
ag16
aa(lp26
g15
ag15
ag15
ag15
ag15
ag15
ag16
ag15
ag15
ag15
ag16
ag15
ag15
ag15
ag15
ag16
ag15
ag15
ag15
ag15
ag15
ag15
ag16
ag15
ag15
ag16
ag20
ag15
ag20
ag16
ag16
ag16
ag16
ag16
ag15
ag15
ag15
ag16
ag16
ag16
aa(lp27
g15
ag15
ag15
ag15
ag15
ag15
ag16
ag15
ag15
ag20
ag16
ag20
ag20
ag15
ag15
ag16
ag15
ag15
ag15
ag15
ag15
ag15
ag16
ag15
ag15
ag16
ag20
ag15
ag15
ag16
ag16
ag16
ag16
ag16
ag15
ag15
ag15
ag16
ag16
ag16
aa(lp28
g15
ag20
ag20
ag15
ag15
ag15
ag16
ag15
ag15
ag20
ag16
ag15
aI1
ag15
ag15
ag16
ag15
ag15
ag15
ag16
ag15
ag15
ag16
ag15
aI1
ag16
ag15
ag15
ag15
ag16
ag16
ag16
ag16
ag16
ag15
ag15
ag15
ag16
ag16
ag16
aa(lp29
g16
ag16
ag16
ag16
ag16
ag16
ag16
ag15
ag15
ag15
ag16
ag15
ag15
ag15
ag15
ag16
ag15
ag15
ag15
ag16
ag15
ag15
ag16
ag15
ag15
ag16
ag15
ag15
ag15
ag20
aI1
ag15
ag16
ag16
ag15
ag15
ag15
ag16
ag16
ag16
aa(lp30
g15
ag15
ag15
ag15
ag15
ag20
ag15
ag15
ag15
ag15
ag16
ag16
ag16
ag16
ag16
ag16
ag15
ag15
ag15
ag16
ag15
ag15
ag16
aI1
ag15
ag16
ag15
ag15
ag15
ag20
aI1
ag15
ag16
ag16
ag15
ag15
ag15
ag16
ag16
ag16
aa(lp31
I0
ag15
ag15
ag15
ag15
ag15
ag15
ag15
ag15
ag15
ag16
ag15
ag15
ag15
ag15
ag15
ag15
ag15
ag15
ag16
ag15
ag15
ag15
ag15
ag15
ag16
ag15
ag15
ag15
ag20
aI1
ag15
ag16
ag16
ag15
ag15
ag15
ag16
ag16
ag16
aa(lp32
g15
ag15
ag20
ag20
ag15
ag15
ag15
ag15
ag15
ag15
ag16
ag15
aI1
ag20
ag15
ag15
ag15
ag15
ag15
ag16
ag15
ag15
ag15
ag15
ag15
ag16
ag15
ag15
ag15
ag16
ag16
ag16
ag16
ag16
ag15
ag15
ag15
ag16
ag16
ag16
aa(lp33
g16
ag16
ag16
ag16
ag16
ag16
ag16
ag15
ag15
ag15
ag16
ag20
ag20
ag20
ag15
ag15
ag15
ag16
ag16
ag16
ag16
ag16
ag16
ag16
ag16
ag16
ag15
ag15
ag15
ag16
ag20
ag15
ag15
ag15
ag15
ag15
ag15
ag15
ag15
ag15
aa(lp34
g16
ag16
ag16
ag16
ag16
ag16
ag16
ag20
ag15
ag15
ag16
ag15
ag15
ag15
ag15
ag15
ag15
ag15
ag15
ag15
ag15
ag15
ag15
ag15
aI1
ag15
ag15
ag15
ag15
ag16
ag15
ag15
ag15
ag20
ag15
ag15
ag15
ag15
ag15
ag15
aa(lp35
g16
ag16
ag16
ag16
ag16
ag16
ag16
ag15
ag15
ag15
ag16
ag15
ag15
ag15
ag15
ag15
ag15
ag15
ag15
ag15
ag15
ag15
ag15
ag15
ag15
ag15
ag15
ag15
ag15
ag16
ag15
aI1
ag16
aI1
ag15
ag15
ag15
ag16
ag20
ag20
aa(lp36
g15
ag15
ag15
ag15
ag15
ag15
ag15
ag15
ag15
ag15
ag16
ag15
ag15
ag15
ag15
ag15
ag15
ag15
ag15
ag15
ag15
ag15
ag15
ag15
aI1
ag15
aI1
ag20
ag20
ag16
ag15
ag15
ag15
ag15
ag15
ag15
ag15
ag15
ag15
ag15
aa(lp37
g15
ag15
ag15
ag15
ag15
ag15
ag15
ag20
ag15
ag20
ag16
ag20
ag15
ag15
ag15
ag15
ag15
ag16
ag16
ag16
ag15
ag15
ag15
ag16
ag16
ag16
ag16
ag16
ag16
ag16
ag15
ag15
aI1
ag15
ag15
ag15
ag15
ag15
ag15
ag15
aa(lp38
g15
ag15
ag15
ag15
ag15
ag15
ag15
ag15
ag20
ag15
ag16
aI1
ag20
ag15
ag15
ag15
ag15
ag15
ag20
ag16
ag15
ag15
ag15
ag16
ag15
ag20
ag20
ag20
ag15
ag16
ag15
ag15
ag15
ag15
ag15
ag15
ag15
ag15
ag15
ag15
aa(lp39
g15
ag15
ag15
ag16
ag16
ag16
ag16
ag16
ag16
ag16
ag16
ag16
ag16
ag16
ag15
ag15
ag15
ag15
ag20
ag16
ag15
ag15
ag15
ag16
ag15
ag20
aS'T'
p40
ag20
ag15
ag16
ag15
ag15
ag15
ag15
ag15
ag15
ag15
ag15
ag15
ag15
aa(lp41
g15
ag15
ag15
ag15
ag15
ag15
ag15
ag15
ag20
aI1
ag15
ag15
ag15
ag16
ag20
ag15
ag15
ag15
ag15
ag16
ag15
ag15
ag15
ag16
ag15
ag15
ag15
ag15
ag15
ag16
ag15
ag15
ag16
ag15
ag15
ag15
ag15
ag16
ag15
ag15
aa(lp42
g15
ag15
ag15
ag15
ag15
ag15
ag15
ag15
ag20
ag15
ag15
aI1
ag15
ag16
aI1
ag15
ag15
ag20
ag15
ag16
ag15
ag15
ag15
ag16
ag15
ag15
ag15
ag15
ag15
ag16
ag20
ag15
ag15
ag15
ag15
ag15
ag15
ag15
ag15
ag20
aa(lp43
g15
ag15
ag15
ag15
ag15
ag15
ag15
ag15
ag20
ag15
ag15
ag15
ag15
ag16
ag15
ag15
ag20
ag20
aI1
ag16
ag15
ag15
ag15
ag16
ag15
ag15
ag15
ag15
ag15
ag16
ag20
ag15
ag15
ag15
ag15
ag15
ag15
ag20
ag20
ag20
aa(lp44
g15
ag15
ag15
ag15
ag15
ag15
ag15
ag15
ag15
ag15
ag15
ag15
ag15
ag16
ag16
ag16
ag16
ag16
ag16
ag16
ag15
ag15
ag15
ag16
ag15
ag16
ag15
ag15
ag15
ag16
ag15
ag15
aI1
aI1
ag15
ag15
ag15
ag15
aI1
ag15
aa(lp45
g15
ag15
ag15
ag15
ag15
ag15
ag15
ag15
ag15
ag15
ag15
ag15
ag15
ag15
ag15
ag15
ag15
ag15
ag15
ag15
ag15
ag15
ag15
ag16
ag15
ag16
ag15
ag15
ag15
ag16
ag15
ag15
ag16
ag15
ag15
ag15
ag15
ag16
ag15
ag15
aa(lp46
g15
ag15
ag20
ag15
ag15
ag15
ag15
ag15
ag15
ag15
ag15
ag15
ag15
aI1
ag15
ag15
ag15
ag15
ag15
ag15
ag15
ag15
ag15
ag16
ag15
ag16
ag15
ag15
ag15
ag15
ag15
ag15
ag15
ag15
ag20
ag20
ag15
ag15
ag15
ag15
aa(lp47
g15
ag15
ag20
ag15
ag15
ag15
ag15
aI1
ag15
ag15
ag15
ag15
ag15
ag15
ag15
ag15
ag15
ag15
ag15
ag15
ag15
ag15
ag15
ag16
ag15
ag16
ag15
ag15
ag15
ag16
ag15
ag15
ag15
ag20
ag20
ag15
ag15
aI1
ag15
ag15
aasS'fielddata'
p48
(dp49
sS'description'
p50
S'sewer dikes'
p51
sbsS'target_enemy'
p52
I0
sS'target_item'
p53
S'Treasure'
p54
sS'rooms'
p55
(lp56
g9
asS'rewardmoney'
p57
I70
sS'rewardxp'
p58
I20
sS'rewarditems'
p59
(lp60
sS'current_room'
p61
g9
sS'target_coordinates'
p62
Nsg50
S'Enter the city sewers, defend yourself against its inhabitants and get the valuables.'
p63
sb.